; Function Attrs: inlinehint nounwind uwtable
define internal fastcc range(i32 -32, 1) i32 @pmix_bfrops_base_tma_copy_nspace(ptr noundef nonnull writeonly captures(none) %0, ptr noundef readonly captures(address_is_null) %1, ptr noundef %2) unnamed_addr #4 {
  %.not.i = icmp eq ptr %2, null
  br i1 %.not.i, label %7, label %4

4:                                                ; preds = %3
  %5 = load ptr, ptr %2, align 8, !tbaa !39
  %6 = tail call ptr %5(ptr noundef nonnull %2, i64 noundef 256) #17
  br label %pmix_tma_malloc.exit

7:                                                ; preds = %3
  %8 = tail call noalias dereferenceable_or_null(256) ptr @malloc(i64 noundef 256) #18
  br label %pmix_tma_malloc.exit

pmix_tma_malloc.exit:                             ; preds = %4, %7
  %.0.i = phi ptr [ %6, %4 ], [ %8, %7 ]
  %9 = icmp eq ptr %.0.i, null
  br i1 %9, label %17, label %10, !prof !29

10:                                               ; preds = %pmix_tma_malloc.exit
  tail call void @llvm.memset.p0.i64(ptr noundef nonnull align 1 dereferenceable(256) %.0.i, i8 0, i64 256, i1 false)
  %.not.i8 = icmp eq ptr %1, null
  br i1 %.not.i8, label %pmix_bfrops_base_tma_load_nspace.exit, label %.preheader.i

.preheader.i:                                     ; preds = %10, %13
  %.012.i.i = phi i64 [ %14, %13 ], [ 0, %10 ]
  %.0811.i.i = phi ptr [ %16, %13 ], [ %.0.i, %10 ]
  %.0910.i.i = phi ptr [ %15, %13 ], [ %1, %10 ]
  %11 = load i8, ptr %.0910.i.i, align 1, !tbaa !92
  store i8 %11, ptr %.0811.i.i, align 1, !tbaa !92
  %12 = icmp eq i8 %11, 0
  br i1 %12, label %pmix_strncpy.exit.i, label %13

13:                                               ; preds = %.preheader.i
  %14 = add nuw nsw i64 %.012.i.i, 1
  %15 = getelementptr inbounds nuw i8, ptr %.0910.i.i, i64 1
  %16 = getelementptr inbounds nuw i8, ptr %.0811.i.i, i64 1
  %exitcond.not.i.i = icmp eq i64 %14, 255
  br i1 %exitcond.not.i.i, label %pmix_strncpy.exit.i, label %.preheader.i, !llvm.loop !197

pmix_strncpy.exit.i:                              ; preds = %13, %.preheader.i
  %.08.lcssa.i.i = phi ptr [ %.0811.i.i, %.preheader.i ], [ %16, %13 ]
  store i8 0, ptr %.08.lcssa.i.i, align 1, !tbaa !92
  br label %pmix_bfrops_base_tma_load_nspace.exit

pmix_bfrops_base_tma_load_nspace.exit:            ; preds = %10, %pmix_strncpy.exit.i
  store ptr %.0.i, ptr %0, align 8, !tbaa !68
  br label %17

17:                                               ; preds = %pmix_tma_malloc.exit, %pmix_bfrops_base_tma_load_nspace.exit
  %.0 = phi i32 [ 0, %pmix_bfrops_base_tma_load_nspace.exit ], [ -32, %pmix_tma_malloc.exit ]
  ret i32 %.0
}